target datalayout = "e-m:e-p270:32:32-p271:32:32-p272:64:64-i64:64-i128:128-f80:128-n8:16:32:64-S128"
target triple = "x86_64-unknown-linux-gnu"

%"class.std::set.0" = type { %"class.std::_Rb_tree.1" }
%"class.std::_Rb_tree.1" = type { %"struct.std::_Rb_tree<QuantLib::Observer *, QuantLib::Observer *, std::_Identity<QuantLib::Observer *>, std::less<QuantLib::Observer *>>::_Rb_tree_impl" }
%"struct.std::_Rb_tree<QuantLib::Observer *, QuantLib::Observer *, std::_Identity<QuantLib::Observer *>, std::less<QuantLib::Observer *>>::_Rb_tree_impl" = type { [8 x i8], %"struct.std::_Rb_tree_header" }
%"struct.std::_Rb_tree_header" = type { %"struct.std::_Rb_tree_node_base", i64 }
%"struct.std::_Rb_tree_node_base" = type { i32, ptr, ptr, ptr }
%"class.std::set" = type { %"class.std::_Rb_tree" }
%"class.std::_Rb_tree" = type { %"struct.std::_Rb_tree<boost::shared_ptr<QuantLib::Observable>, boost::shared_ptr<QuantLib::Observable>, std::_Identity<boost::shared_ptr<QuantLib::Observable>>, std::less<boost::shared_ptr<QuantLib::Observable>>>::_Rb_tree_impl" }
%"struct.std::_Rb_tree<boost::shared_ptr<QuantLib::Observable>, boost::shared_ptr<QuantLib::Observable>, std::_Identity<boost::shared_ptr<QuantLib::Observable>>, std::less<boost::shared_ptr<QuantLib::Observable>>>::_Rb_tree_impl" = type { [8 x i8], %"struct.std::_Rb_tree_header" }
%"class.boost::detail::shared_count" = type { ptr }
%"class.QuantLib::Observable" = type { ptr, %"class.std::set.0" }
%"class.QuantLib::DayCounter" = type { %"class.boost::shared_ptr.18" }
%"class.boost::shared_ptr.18" = type { ptr, %"class.boost::detail::shared_count" }
%"class.QuantLib::Extrapolator.base" = type <{ ptr, i8 }>
%"class.QuantLib::Calendar" = type { %"class.boost::shared_ptr.19" }
%"class.boost::shared_ptr.19" = type { ptr, %"class.boost::detail::shared_count" }
%"class.QuantLib::Date" = type { i64 }
%"class.QuantLib::Observer" = type { ptr, %"class.std::set" }
%"class.QuantLib::TermStructure.base" = type { %"class.QuantLib::Extrapolator.base", i8, i8, %"class.QuantLib::Calendar", %"class.QuantLib::Date", i32, %"class.QuantLib::DayCounter" }
%"class.QuantLib::ConstantSwaptionVolatility" = type { %"class.QuantLib::SwaptionVolatilityStructure.base", %"class.QuantLib::Handle", %"class.QuantLib::Period", i32, double, %"class.QuantLib::Observer", %"class.QuantLib::Observable" }
%"class.QuantLib::SwaptionVolatilityStructure.base" = type { %"class.QuantLib::VolatilityTermStructure.base" }
%"class.QuantLib::VolatilityTermStructure.base" = type <{ %"class.QuantLib::TermStructure.base", i32 }>
%"class.QuantLib::Handle" = type { %"class.boost::shared_ptr.21" }
%"class.boost::shared_ptr.21" = type { ptr, %"class.boost::detail::shared_count" }
%"class.QuantLib::Period" = type { i32, i32 }
%"class.boost::shared_ptr.22" = type { ptr, %"class.boost::detail::shared_count" }

@.str.7 = private unnamed_addr constant [8 x i8] c"px != 0\00", align 1
@.str.8 = private unnamed_addr constant [102 x i8] c"generated/home/dtcxzyw/WorkSpace/SDK/vcpkg/installed/x64-linux/include/boost/smart_ptr/shared_ptr.hpp\00", align 1
@__PRETTY_FUNCTION__._ZNK5boost10shared_ptrIN8QuantLib5QuoteEEptEv = private unnamed_addr constant [127 x i8] c"typename boost::detail::sp_member_access<T>::type boost::shared_ptr<QuantLib::Quote>::operator->() const [T = QuantLib::Quote]\00", align 1

; Function Attrs: mustprogress uwtable
define linkonce_odr noundef ptr @_ZNK5boost10shared_ptrIN8QuantLib5QuoteEEptEv(ptr noundef nonnull align 8 dereferenceable(16) %this) #2 comdat align 2 {
entry:
  %this.addr = alloca ptr, align 8
  store ptr %this, ptr %this.addr, align 8, !tbaa !3
  %this1 = load ptr, ptr %this.addr, align 8
  %px = getelementptr inbounds nuw %"class.boost::shared_ptr.22", ptr %this1, i32 0, i32 0
  %0 = load ptr, ptr %px, align 8, !tbaa !46
  %cmp = icmp ne ptr %0, null
  %lnot = xor i1 %cmp, true
  %lnot2 = xor i1 %lnot, true
  %conv = zext i1 %lnot2 to i64
  %expval = call i64 @llvm.expect.i64(i64 %conv, i64 1)
  %tobool = icmp ne i64 %expval, 0
  br i1 %tobool, label %cond.true, label %cond.false

cond.true:                                        ; preds = %entry
  br label %cond.end

cond.false:                                       ; preds = %entry
  call void @_ZN5boost16assertion_failedEPKcS1_S1_l(ptr noundef @.str.7, ptr noundef @__PRETTY_FUNCTION__._ZNK5boost10shared_ptrIN8QuantLib5QuoteEEptEv, ptr noundef @.str.8, i64 noundef 784)
  br label %cond.end

cond.end:                                         ; preds = %cond.false, %cond.true
  %px3 = getelementptr inbounds nuw %"class.boost::shared_ptr.22", ptr %this1, i32 0, i32 0
  %1 = load ptr, ptr %px3, align 8, !tbaa !46
  ret ptr %1
}

; Function Attrs: mustprogress uwtable
define noundef double @_ZNK8QuantLib26ConstantSwaptionVolatility14volatilityImplERKNS_4DateERKNS_6PeriodEd(ptr noundef nonnull align 8 dereferenceable(112) %this, ptr noundef nonnull align 8 dereferenceable(8) %0, ptr noundef nonnull align 4 dereferenceable(8) %1, double noundef %2) unnamed_addr #2 align 2 {
entry:
  %this.addr = alloca ptr, align 8
  %.addr = alloca ptr, align 8
  %.addr1 = alloca ptr, align 8
  %.addr2 = alloca double, align 8
  store ptr %this, ptr %this.addr, align 8, !tbaa !3
  store ptr %0, ptr %.addr, align 8, !tbaa !3
  store ptr %1, ptr %.addr1, align 8, !tbaa !3
  store double %2, ptr %.addr2, align 8, !tbaa !35
  %this3 = load ptr, ptr %this.addr, align 8
  %volatility_ = getelementptr inbounds nuw %"class.QuantLib::ConstantSwaptionVolatility", ptr %this3, i32 0, i32 1
  %call = call noundef nonnull align 8 dereferenceable(16) ptr @_ZNK8QuantLib6HandleINS_5QuoteEEptEv(ptr noundef nonnull align 8 dereferenceable(16) %volatility_)
  %call4 = call noundef ptr @_ZNK5boost10shared_ptrIN8QuantLib5QuoteEEptEv(ptr noundef nonnull align 8 dereferenceable(16) %call)
  %vtable = load ptr, ptr %call4, align 8, !tbaa !12
  %vfn = getelementptr inbounds ptr, ptr %vtable, i64 2
  %3 = load ptr, ptr %vfn, align 8
  %call5 = call noundef double %3(ptr noundef nonnull align 8 dereferenceable(8) %call4)
  ret double %call5
}